target datalayout = "e-m:e-p270:32:32-p271:32:32-p272:64:64-i64:64-i128:128-f80:128-n8:16:32:64-S128"
target triple = "x86_64-pc-linux-gnu"

%struct.darktable_t = type { %struct.dt_codepath_t, i32, i32, ptr, ptr, ptr, ptr, ptr, ptr, ptr, ptr, ptr, ptr, ptr, ptr, ptr, ptr, ptr, ptr, ptr, ptr, ptr, ptr, ptr, ptr, ptr, ptr, ptr, ptr, ptr, [64 x %struct.dt_pthread_mutex_t], %struct.dt_pthread_mutex_t, %struct.dt_pthread_mutex_t, %struct.dt_pthread_mutex_t, %struct.dt_pthread_mutex_t, %struct.dt_pthread_mutex_t, ptr, ptr, ptr, ptr, ptr, ptr, ptr, ptr, ptr, ptr, ptr, ptr, ptr, %struct.dt_lua_state_t, ptr, double, ptr, i32, [47 x i32], i32, i32, ptr, ptr, %struct.dt_sys_resources_t, %struct.dt_backthumb_t, %struct.dt_gimp_t }
%struct.dt_codepath_t = type { i8, [3 x i8] }
%struct.dt_pthread_mutex_t = type { %union.pthread_mutex_t }
%union.pthread_mutex_t = type { %struct.__pthread_mutex_s }
%struct.__pthread_mutex_s = type { i32, i32, i32, i32, i32, i16, i16, %struct.__pthread_internal_list }
%struct.__pthread_internal_list = type { ptr, ptr }
%struct.dt_lua_state_t = type { i32 }
%struct.dt_sys_resources_t = type { i64, i64, ptr, ptr, i32 }
%struct.dt_backthumb_t = type { double, double, i32, i32, i32, i32 }
%struct.dt_gimp_t = type { i32, ptr, ptr, i32, i32 }
%struct.dt_camctl_t = type { %struct.dt_pthread_mutex_t, %struct.dt_pthread_mutex_t, i64, ptr, ptr, ptr, ptr, ptr, ptr, ptr, ptr, i32, i32, i32 }
%struct.dt_camera_t = type { ptr, ptr, %struct.CameraText, ptr, ptr, %struct.dt_pthread_mutex_t, i32, i32, i32, i32, i32, i32, i32, i32, i32, ptr, %struct.dt_pthread_mutex_t, ptr, %struct.anon, ptr, ptr, i32, i32, i32, i32, ptr, i32, i32, i32, i32, i32, i32, i32, i32, i64, %struct.dt_pthread_mutex_t, %struct.dt_pthread_mutex_t }
%struct.CameraText = type { [32768 x i8] }
%struct.anon = type { ptr, i32 }

@darktable = external global %struct.darktable_t, align 8
@.str.24 = private unnamed_addr constant [73 x i8] c"[camera_control] failed to build property menu from camera, camera==NULL\00", align 1
@.str.25 = private unnamed_addr constant [66 x i8] c"[camera_control] building property menu from camera configuration\00", align 1

; Function Attrs: inlinehint nounwind uwtable
define internal i32 @dt_pthread_mutex_unlock(ptr noundef %0) #4 {
  %2 = alloca ptr, align 8
  store ptr %0, ptr %2, align 8, !tbaa !91
  %3 = load ptr, ptr %2, align 8, !tbaa !91
  %4 = getelementptr inbounds nuw %struct.dt_pthread_mutex_t, ptr %3, i32 0, i32 0
  %5 = call i32 @pthread_mutex_unlock(ptr noundef %4) #10
  ret i32 %5
}

; Function Attrs: inlinehint nounwind uwtable
define internal i32 @dt_pthread_mutex_lock(ptr noundef %0) #4 {
  %2 = alloca ptr, align 8
  store ptr %0, ptr %2, align 8, !tbaa !91
  %3 = load ptr, ptr %2, align 8, !tbaa !91
  %4 = getelementptr inbounds nuw %struct.dt_pthread_mutex_t, ptr %3, i32 0, i32 0
  %5 = call i32 @pthread_mutex_lock(ptr noundef %4) #10
  ret i32 %5
}

; Function Attrs: nounwind uwtable
define void @dt_camctl_camera_build_property_menu(ptr noundef %0, ptr noundef %1, ptr noundef %2, ptr noundef %3, ptr noundef %4) #0 {
  %6 = alloca ptr, align 8
  %7 = alloca ptr, align 8
  %8 = alloca ptr, align 8
  %9 = alloca ptr, align 8
  %10 = alloca ptr, align 8
  %11 = alloca ptr, align 8
  %12 = alloca i32, align 4
  %13 = alloca ptr, align 8
  store ptr %0, ptr %6, align 8, !tbaa !6
  store ptr %1, ptr %7, align 8, !tbaa !21
  store ptr %2, ptr %8, align 8, !tbaa !151
  store ptr %3, ptr %9, align 8, !tbaa !72
  store ptr %4, ptr %10, align 8, !tbaa !72
  call void @llvm.lifetime.start.p0(i64 8, ptr %11) #10
  %14 = load ptr, ptr %6, align 8, !tbaa !6
  store ptr %14, ptr %11, align 8, !tbaa !6
  %15 = load ptr, ptr %7, align 8, !tbaa !21
  %16 = icmp ne ptr %15, null
  br i1 %16, label %41, label %17

17:                                               ; preds = %5
  %18 = load ptr, ptr %11, align 8, !tbaa !6
  %19 = getelementptr inbounds nuw %struct.dt_camctl_t, ptr %18, i32 0, i32 10
  %20 = load ptr, ptr %19, align 8, !tbaa !11
  store ptr %20, ptr %7, align 8, !tbaa !21
  %21 = icmp eq ptr %20, null
  br i1 %21, label %22, label %41

22:                                               ; preds = %17
  %23 = load ptr, ptr %11, align 8, !tbaa !6
  %24 = getelementptr inbounds nuw %struct.dt_camctl_t, ptr %23, i32 0, i32 9
  %25 = load ptr, ptr %24, align 8, !tbaa !65
  store ptr %25, ptr %7, align 8, !tbaa !21
  %26 = icmp eq ptr %25, null
  br i1 %26, label %27, label %41

27:                                               ; preds = %22
  br label %28

28:                                               ; preds = %27
  %29 = load i32, ptr getelementptr inbounds nuw (%struct.darktable_t, ptr @darktable, i32 0, i32 2), align 8, !tbaa !22
  %30 = and i32 32, %29
  %31 = icmp ne i32 %30, 0
  br i1 %31, label %32, label %38

32:                                               ; preds = %28
  %33 = load i32, ptr getelementptr inbounds nuw (%struct.darktable_t, ptr @darktable, i32 0, i32 2), align 8, !tbaa !22
  %34 = xor i32 %33, -1
  %35 = and i32 0, %34
  %36 = icmp ne i32 %35, 0
  br i1 %36, label %38, label %37

37:                                               ; preds = %32
  call void (ptr, ...) @dt_print_ext(ptr noundef @.str.24)
  br label %38

38:                                               ; preds = %37, %32, %28
  br label %39

39:                                               ; preds = %38
  br label %40

40:                                               ; preds = %39
  store i32 1, ptr %12, align 4
  br label %77

41:                                               ; preds = %22, %17, %5
  br label %42

42:                                               ; preds = %41
  %43 = load i32, ptr getelementptr inbounds nuw (%struct.darktable_t, ptr @darktable, i32 0, i32 2), align 8, !tbaa !22
  %44 = and i32 32, %43
  %45 = icmp ne i32 %44, 0
  br i1 %45, label %46, label %52

46:                                               ; preds = %42
  %47 = load i32, ptr getelementptr inbounds nuw (%struct.darktable_t, ptr @darktable, i32 0, i32 2), align 8, !tbaa !22
  %48 = xor i32 %47, -1
  %49 = and i32 0, %48
  %50 = icmp ne i32 %49, 0
  br i1 %50, label %52, label %51

51:                                               ; preds = %46
  call void (ptr, ...) @dt_print_ext(ptr noundef @.str.25)
  br label %52

52:                                               ; preds = %51, %46, %42
  br label %53

53:                                               ; preds = %52
  br label %54

54:                                               ; preds = %53
  call void @llvm.lifetime.start.p0(i64 8, ptr %13) #10
  %55 = load ptr, ptr %7, align 8, !tbaa !21
  store ptr %55, ptr %13, align 8, !tbaa !21
  %56 = load ptr, ptr %13, align 8, !tbaa !21
  %57 = getelementptr inbounds nuw %struct.dt_camera_t, ptr %56, i32 0, i32 5
  %58 = call i32 @dt_pthread_mutex_lock(ptr noundef %57)
  %59 = call ptr @gtk_menu_new()
  %60 = call i64 @gtk_menu_get_type() #13
  %61 = call ptr @g_type_check_instance_cast(ptr noundef %59, i64 noundef %60)
  %62 = load ptr, ptr %8, align 8, !tbaa !151
  store ptr %61, ptr %62, align 8, !tbaa !153
  %63 = load ptr, ptr %13, align 8, !tbaa !21
  %64 = getelementptr inbounds nuw %struct.dt_camera_t, ptr %63, i32 0, i32 3
  %65 = load ptr, ptr %64, align 8, !tbaa !98
  %66 = load ptr, ptr %8, align 8, !tbaa !151
  %67 = load ptr, ptr %66, align 8, !tbaa !153
  %68 = load ptr, ptr %9, align 8, !tbaa !72
  %69 = load ptr, ptr %10, align 8, !tbaa !72
  call void @_camera_build_property_menu(ptr noundef %65, ptr noundef %67, ptr noundef %68, ptr noundef %69)
  %70 = load ptr, ptr %8, align 8, !tbaa !151
  %71 = load ptr, ptr %70, align 8, !tbaa !153
  %72 = call i64 @gtk_widget_get_type() #13
  %73 = call ptr @g_type_check_instance_cast(ptr noundef %71, i64 noundef %72)
  call void @gtk_widget_show_all(ptr noundef %73)
  %74 = load ptr, ptr %13, align 8, !tbaa !21
  %75 = getelementptr inbounds nuw %struct.dt_camera_t, ptr %74, i32 0, i32 5
  %76 = call i32 @dt_pthread_mutex_unlock(ptr noundef %75)
  call void @llvm.lifetime.end.p0(i64 8, ptr %13) #10
  store i32 0, ptr %12, align 4
  br label %77

77:                                               ; preds = %54, %40
  call void @llvm.lifetime.end.p0(i64 8, ptr %11) #10
  %78 = load i32, ptr %12, align 4
  switch i32 %78, label %80 [
    i32 0, label %79
    i32 1, label %79
  ]

79:                                               ; preds = %77, %77
  ret void

80:                                               ; preds = %77
  unreachable
}