; Function Attrs: nounwind uwtable
define void @dt_camctl_camera_build_property_menu(ptr noundef readonly captures(none) %0, ptr noundef %1, ptr noundef captures(none) %2, ptr noundef %3, ptr noundef %4) local_unnamed_addr #0 {
  %.not = icmp eq ptr %1, null
  br i1 %.not, label %6, label %18

6:                                                ; preds = %5
  %7 = getelementptr inbounds nuw i8, ptr %0, i64 144
  %8 = load ptr, ptr %7, align 8, !tbaa !6
  %9 = icmp eq ptr %8, null
  br i1 %9, label %10, label %18

10:                                               ; preds = %6
  %11 = getelementptr inbounds nuw i8, ptr %0, i64 136
  %12 = load ptr, ptr %11, align 8, !tbaa !61
  %13 = icmp eq ptr %12, null
  br i1 %13, label %14, label %18

14:                                               ; preds = %10
  %15 = load i32, ptr getelementptr inbounds nuw (i8, ptr @darktable, i64 8), align 8, !tbaa !19
  %16 = and i32 %15, 32
  %.not16 = icmp eq i32 %16, 0
  br i1 %.not16, label %34, label %17

17:                                               ; preds = %14
  tail call void (ptr, ...) @dt_print_ext(ptr noundef nonnull @.str.24) #15
  br label %34

18:                                               ; preds = %5, %6, %10
  %.0 = phi ptr [ %1, %5 ], [ %12, %10 ], [ %8, %6 ]
  %19 = load i32, ptr getelementptr inbounds nuw (i8, ptr @darktable, i64 8), align 8, !tbaa !19
  %20 = and i32 %19, 32
  %.not17 = icmp eq i32 %20, 0
  br i1 %.not17, label %22, label %21

21:                                               ; preds = %18
  tail call void (ptr, ...) @dt_print_ext(ptr noundef nonnull @.str.25) #15
  br label %22

22:                                               ; preds = %21, %18
  %23 = getelementptr inbounds nuw i8, ptr %.0, i64 32800
  %24 = tail call i32 @pthread_mutex_lock(ptr noundef nonnull %23) #15
  %25 = tail call ptr @gtk_menu_new() #15
  %26 = tail call i64 @gtk_menu_get_type() #18
  %27 = tail call ptr @g_type_check_instance_cast(ptr noundef %25, i64 noundef %26) #15
  store ptr %27, ptr %2, align 8, !tbaa !199
  %28 = getelementptr inbounds nuw i8, ptr %.0, i64 32784
  %29 = load ptr, ptr %28, align 8, !tbaa !96
  tail call fastcc void @_camera_build_property_menu(ptr noundef %29, ptr noundef %27, ptr noundef %3, ptr noundef %4)
  %30 = load ptr, ptr %2, align 8, !tbaa !199
  %31 = tail call i64 @gtk_widget_get_type() #18
  %32 = tail call ptr @g_type_check_instance_cast(ptr noundef %30, i64 noundef %31) #15
  tail call void @gtk_widget_show_all(ptr noundef %32) #15
  %33 = tail call i32 @pthread_mutex_unlock(ptr noundef nonnull %23) #15
  br label %34

34:                                               ; preds = %14, %17, %22
  ret void
}